target datalayout = "e-m:e-p270:32:32-p271:32:32-p272:64:64-i64:64-i128:128-f80:128-n8:16:32:64-S128"
target triple = "x86_64-unknown-linux-gnu"

%"class.icu_75::UObject" = type { ptr }
%"class.icu_75::DateFormat" = type { %"class.icu_75::Format.base", ptr, ptr, %"class.icu_75::EnumSet", i32 }
%"class.icu_75::Format.base" = type <{ %"class.icu_75::UObject", [157 x i8], [157 x i8] }>
%"class.icu_75::EnumSet" = type { i32 }

; Function Attrs: mustprogress nounwind uwtable
define linkonce_odr noundef i32 @_ZNK6icu_757EnumSetI27UDateFormatBooleanAttributeLj0ELj4EE4flagES1_(ptr noundef nonnull align 4 dereferenceable(4) %this, i32 noundef %toCheck) #0 comdat align 2 {
entry:
  %this.addr = alloca ptr, align 8
  %toCheck.addr = alloca i32, align 4
  store ptr %this, ptr %this.addr, align 8
  store i32 %toCheck, ptr %toCheck.addr, align 4
  %0 = load i32, ptr %toCheck.addr, align 4
  %sub = sub i32 %0, 0
  %shl = shl i32 1, %sub
  ret i32 %shl
}

; Function Attrs: mustprogress nounwind uwtable
define linkonce_odr noundef i32 @_ZNK6icu_757EnumSetI27UDateFormatBooleanAttributeLj0ELj4EE3getES1_(ptr noundef nonnull align 4 dereferenceable(4) %this, i32 noundef %toCheck) #0 comdat align 2 {
entry:
  %this.addr = alloca ptr, align 8
  %toCheck.addr = alloca i32, align 4
  store ptr %this, ptr %this.addr, align 8
  store i32 %toCheck, ptr %toCheck.addr, align 4
  %this1 = load ptr, ptr %this.addr, align 8
  %fBools = getelementptr inbounds %"class.icu_75::EnumSet", ptr %this1, i32 0, i32 0
  %0 = load i32, ptr %fBools, align 4
  %1 = load i32, ptr %toCheck.addr, align 4
  %call = call noundef i32 @_ZNK6icu_757EnumSetI27UDateFormatBooleanAttributeLj0ELj4EE4flagES1_(ptr noundef nonnull align 4 dereferenceable(4) %this1, i32 noundef %1)
  %and = and i32 %0, %call
  %tobool = icmp ne i32 %and, 0
  %cond = select i1 %tobool, i32 1, i32 0
  ret i32 %cond
}

; Function Attrs: mustprogress uwtable
define noundef signext i8 @_ZNK6icu_7510DateFormat19getBooleanAttributeE27UDateFormatBooleanAttributeR10UErrorCode(ptr noundef nonnull align 8 dereferenceable(352) %this, i32 noundef %attr, ptr noundef nonnull align 4 dereferenceable(4) %0) unnamed_addr #2 align 2 {
entry:
  %this.addr = alloca ptr, align 8
  %attr.addr = alloca i32, align 4
  %.addr = alloca ptr, align 8
  store ptr %this, ptr %this.addr, align 8
  store i32 %attr, ptr %attr.addr, align 4
  store ptr %0, ptr %.addr, align 8
  %this1 = load ptr, ptr %this.addr, align 8
  %fBoolFlags = getelementptr inbounds %"class.icu_75::DateFormat", ptr %this1, i32 0, i32 3
  %1 = load i32, ptr %attr.addr, align 4
  %call = call noundef i32 @_ZNK6icu_757EnumSetI27UDateFormatBooleanAttributeLj0ELj4EE3getES1_(ptr noundef nonnull align 4 dereferenceable(4) %fBoolFlags, i32 noundef %1)
  %conv = trunc i32 %call to i8
  ret i8 %conv
}