; Function Attrs: mustprogress nofree norecurse nosync nounwind willreturn memory(argmem: read) uwtable
define noundef signext i8 @_ZNK6icu_7510DateFormat19getBooleanAttributeE27UDateFormatBooleanAttributeR10UErrorCode(ptr nocapture noundef nonnull readonly align 8 dereferenceable(352) %this, i32 noundef %attr, ptr nocapture nonnull readnone align 4 %0) unnamed_addr #9 align 2 {
entry:
  %fBoolFlags = getelementptr inbounds i8, ptr %this, i64 344
  %1 = load i32, ptr %fBoolFlags, align 8
  %2 = lshr i32 %1, %attr
  %3 = trunc i32 %2 to i8
  %conv = and i8 %3, 1
  ret i8 %conv
}